; Function Attrs: mustprogress uwtable
define void @_Z14LoadDictionaryRKNSt7__cxx1112basic_stringIcSt11char_traitsIcESaIcEEES6_(ptr dead_on_unwind noalias nocapture writable writeonly sret(%"class.std::shared_ptr") align 8 %0, ptr noundef nonnull align 8 dereferenceable(32) %1, ptr noundef nonnull align 8 dereferenceable(32) %2) local_unnamed_addr #3 personality ptr @__gxx_personality_v0 {
  %4 = alloca %"class.std::shared_ptr.0", align 8
  %5 = alloca %"class.std::shared_ptr.3", align 8
  %6 = tail call noundef i32 @_ZNKSt7__cxx1112basic_stringIcSt11char_traitsIcESaIcEE7compareEPKc(ptr noundef nonnull align 8 dereferenceable(32) %1, ptr noundef nonnull @.str.1) #11
  %7 = icmp eq i32 %6, 0
  br i1 %7, label %8, label %20

8:                                                ; preds = %3
  call void @llvm.memset.p0.i64(ptr noundef nonnull align 8 dereferenceable(16) %4, i8 0, i64 16, i1 false), !alias.scope !4
  %9 = invoke noundef zeroext i1 @_ZN6opencc16SerializableDict15TryLoadFromFileINS_8TextDictEEEbRKNSt7__cxx1112basic_stringIcSt11char_traitsIcESaIcEEEPSt10shared_ptrIT_E(ptr noundef nonnull align 8 dereferenceable(32) %2, ptr noundef nonnull %4)
          to label %10 unwind label %14

10:                                               ; preds = %8
  br i1 %9, label %_ZNSt10shared_ptrIN6opencc8TextDictEED2Ev.exit, label %11

11:                                               ; preds = %10
  %12 = call ptr @__cxa_allocate_exception(i64 40) #11
  invoke void @_ZN6opencc12FileNotFoundC2ERKNSt7__cxx1112basic_stringIcSt11char_traitsIcESaIcEEE(ptr noundef nonnull align 8 dereferenceable(40) %12, ptr noundef nonnull align 8 dereferenceable(32) %2)
          to label %13 unwind label %16

13:                                               ; preds = %11
  invoke void @__cxa_throw(ptr nonnull %12, ptr nonnull @_ZTIN6opencc12FileNotFoundE, ptr nonnull @_ZN6opencc12FileNotFoundD2Ev) #12
          to label %19 unwind label %14

14:                                               ; preds = %13, %8
  %15 = landingpad { ptr, i32 }
          cleanup
  br label %18

16:                                               ; preds = %11
  %17 = landingpad { ptr, i32 }
          cleanup
  call void @__cxa_free_exception(ptr %12) #11
  br label %18

common.resume:                                    ; preds = %36, %18
  %common.resume.op = phi { ptr, i32 } [ %.pn.i, %18 ], [ %.pn.i6, %36 ]
  resume { ptr, i32 } %common.resume.op

18:                                               ; preds = %16, %14
  %.pn.i = phi { ptr, i32 } [ %15, %14 ], [ %17, %16 ]
  call void @_ZNSt10shared_ptrIN6opencc8TextDictEED2Ev(ptr noundef nonnull align 8 dereferenceable(16) %4) #11
  br label %common.resume

19:                                               ; preds = %13
  unreachable

20:                                               ; preds = %3
  %21 = tail call noundef i32 @_ZNKSt7__cxx1112basic_stringIcSt11char_traitsIcESaIcEE7compareEPKc(ptr noundef nonnull align 8 dereferenceable(32) %1, ptr noundef nonnull @.str.2) #11
  %22 = icmp eq i32 %21, 0
  br i1 %22, label %38, label %23

23:                                               ; preds = %20
  %24 = tail call noundef i32 @_ZNKSt7__cxx1112basic_stringIcSt11char_traitsIcESaIcEE7compareEPKc(ptr noundef nonnull align 8 dereferenceable(32) %1, ptr noundef nonnull @.str.3) #11
  %25 = icmp eq i32 %24, 0
  br i1 %25, label %26, label %38

26:                                               ; preds = %23
  call void @llvm.memset.p0.i64(ptr noundef nonnull align 8 dereferenceable(16) %5, i8 0, i64 16, i1 false), !alias.scope !7
  %27 = invoke noundef zeroext i1 @_ZN6opencc16SerializableDict15TryLoadFromFileINS_10MarisaDictEEEbRKNSt7__cxx1112basic_stringIcSt11char_traitsIcESaIcEEEPSt10shared_ptrIT_E(ptr noundef nonnull align 8 dereferenceable(32) %2, ptr noundef nonnull %5)
          to label %28 unwind label %32

28:                                               ; preds = %26
  br i1 %27, label %_ZNSt10shared_ptrIN6opencc8TextDictEED2Ev.exit, label %29

29:                                               ; preds = %28
  %30 = call ptr @__cxa_allocate_exception(i64 40) #11
  invoke void @_ZN6opencc12FileNotFoundC2ERKNSt7__cxx1112basic_stringIcSt11char_traitsIcESaIcEEE(ptr noundef nonnull align 8 dereferenceable(40) %30, ptr noundef nonnull align 8 dereferenceable(32) %2)
          to label %31 unwind label %34

31:                                               ; preds = %29
  invoke void @__cxa_throw(ptr nonnull %30, ptr nonnull @_ZTIN6opencc12FileNotFoundE, ptr nonnull @_ZN6opencc12FileNotFoundD2Ev) #12
          to label %37 unwind label %32

32:                                               ; preds = %31, %26
  %33 = landingpad { ptr, i32 }
          cleanup
  br label %36

34:                                               ; preds = %29
  %35 = landingpad { ptr, i32 }
          cleanup
  call void @__cxa_free_exception(ptr %30) #11
  br label %36

36:                                               ; preds = %34, %32
  %.pn.i6 = phi { ptr, i32 } [ %33, %32 ], [ %35, %34 ]
  call void @_ZNSt10shared_ptrIN6opencc10MarisaDictEED2Ev(ptr noundef nonnull align 8 dereferenceable(16) %5) #11
  br label %common.resume

37:                                               ; preds = %31
  unreachable

38:                                               ; preds = %20, %23
  %39 = load ptr, ptr @stderr, align 8
  %40 = tail call noundef ptr @_ZNKSt7__cxx1112basic_stringIcSt11char_traitsIcESaIcEE5c_strEv(ptr noundef nonnull align 8 dereferenceable(32) %1) #11
  %41 = tail call i32 (ptr, ptr, ...) @fprintf(ptr noundef %39, ptr noundef nonnull @.str.4, ptr noundef %40) #13
  tail call void @exit(i32 noundef 2) #14
  unreachable

_ZNSt10shared_ptrIN6opencc8TextDictEED2Ev.exit:   ; preds = %28, %10
  %.sink = phi ptr [ %4, %10 ], [ %5, %28 ]
  %42 = load <2 x ptr>, ptr %.sink, align 8
  store <2 x ptr> %42, ptr %0, align 8
  ret void
}